EXPORTS
	_Z11matWarpRingRKN2cv3MatERS0_St6vectorIfSaIfEE
	_Z13matRotateSizeN2cv5Size_IiEENS_6Point_IfEEfRfS4_S4_S4_
	_Z13matWarpAffineRKN2cv3MatERS0_NS_6Point_IfEEffS5_NS_5Size_IiEEiNS_7Scalar_IdEEi
	_Z7matInfoRKN2cv3MatE
	_Z7matRingRKN2cv3MatERS0_
	_Z9matMaximaRKN2cv3MatERSt6vectorINS_6Point_IiEESaIS5_EEff
	_Z9matMinimaRKN2cv3MatERSt6vectorINS_6Point_IiEESaIS5_EEff
	_ZN9firesight13MatchedRegion6asJsonEv
	_ZN9firesight13MatchedRegion9as_json_tEv
	_ZN9firesight13MatchedRegionC1EN2cv5RangeES2_NS1_6Point_IfEEif
	_ZN9firesight13MatchedRegionC2EN2cv5RangeES2_NS1_6Point_IfEEif
	_ZN9firesight14HoleRecognizer10scanRegionERSt6vectorIN2cv6Point_IiEESaIS4_EEiRNS2_3MatERS1_INS_13MatchedRegionESaISA_EEff
	_ZN9firesight14HoleRecognizer11showMatchesEi
	_ZN9firesight14HoleRecognizer4scanERN2cv3MatERSt6vectorINS_13MatchedRegionESaIS5_EEff
	_ZN9firesight14HoleRecognizerC1Eff
	_ZN9firesight14HoleRecognizerC2Eff
	_ZN9firesight5ModelC1ERSt3mapISsPKcSt4lessISsESaISt4pairIKSsS3_EEE
	_ZN9firesight5ModelC2ERSt3mapISsPKcSt4lessISsESaISt4pairIKSsS3_EEE
	_ZN9firesight5ModelD1Ev
	_ZN9firesight5ModelD2Ev
	_ZN9firesight6jo_intEPK6json_tPKciRSt3mapISsS4_St4lessISsESaISt4pairIKSsS4_EEE
	_ZN9firesight7jo_boolEPK6json_tPKcbRSt3mapISsS4_St4lessISsESaISt4pairIKSsS4_EEE
	_ZN9firesight8Pipeline10apply_MSEREP6json_tS2_RNS_5ModelE
	_ZN9firesight8Pipeline10apply_blurEP6json_tS2_RNS_5ModelE
	_ZN9firesight8Pipeline10apply_coutEP6json_tS2_RNS_5ModelE
	_ZN9firesight8Pipeline11apply_CannyEP6json_tS2_RNS_5ModelE
	_ZN9firesight8Pipeline11apply_erodeEP6json_tS2_RNS_5ModelE
	_ZN9firesight8Pipeline11apply_protoEP6json_tS2_RNS_5ModelE
	_ZN9firesight8Pipeline11apply_splitEP6json_tS2_RNS_5ModelE
	_ZN9firesight8Pipeline11detectRectsEP6json_tRSt6vectorIS3_IN2cv6Point_IiEESaIS6_EESaIS8_EE
	_ZN9firesight8Pipeline11parseCvTypeEPKcRS2_
	_ZN9firesight8Pipeline12apply_dilateEP6json_tS2_RNS_5ModelE
	_ZN9firesight8Pipeline12apply_imreadEP6json_tS2_RNS_5ModelE
	_ZN9firesight8Pipeline12apply_resizeEP6json_tS2_RNS_5ModelE
	_ZN9firesight8Pipeline12covarianceXYERKSt6vectorIN2cv6Point_IiEESaIS4_EERNS2_3MatESA_
	_ZN9firesight8Pipeline12processModelERNS_5ModelE
	_ZN9firesight8Pipeline13_covarianceXYERKSt6vectorIN2cv6Point_IiEESaIS4_EERNS2_3MatESA_
	_ZN9firesight8Pipeline13apply_imwriteEP6json_tS2_RNS_5ModelE
	_ZN9firesight8Pipeline13validateImageERN2cv3MatE
	_ZN9firesight8Pipeline14apply_calcHistEP6json_tS2_RNS_5ModelE
	_ZN9firesight8Pipeline14apply_cvtColorEP6json_tS2_RNS_5ModelE
	_ZN9firesight8Pipeline14apply_warpRingEP6json_tS2_RNS_5ModelE
	_ZN9firesight8Pipeline14regionKeypointERKSt6vectorIN2cv6Point_IiEESaIS4_EE
	_ZN9firesight8Pipeline15_regionKeypointERKSt6vectorIN2cv6Point_IiEESaIS4_EE
	_ZN9firesight8Pipeline15apply_convertToEP6json_tS2_RNS_5ModelE
	_ZN9firesight8Pipeline15apply_drawRectsEP6json_tS2_RNS_5ModelE
	_ZN9firesight8Pipeline15apply_normalizeEP6json_tS2_RNS_5ModelE
	_ZN9firesight8Pipeline15apply_rectangleEP6json_tS2_RNS_5ModelE
	_ZN9firesight8Pipeline15detectKeypointsEP6json_tRSt6vectorIS3_IN2cv6Point_IiEESaIS6_EESaIS8_EE
	_ZN9firesight8Pipeline16apply_stageImageEP6json_tS2_RNS_5ModelE
	_ZN9firesight8Pipeline16apply_warpAffineEP6json_tS2_RNS_5ModelE
	_ZN9firesight8Pipeline17apply_dftSpectrumEP6json_tS2_RNS_5ModelE
	_ZN9firesight8Pipeline18apply_equalizeHistEP6json_tS2_RNS_5ModelE
	_ZN9firesight8Pipeline19apply_drawKeypointsEP6json_tS2_RNS_5ModelE
	_ZN9firesight8Pipeline19apply_matchTemplateEP6json_tS2_RNS_5ModelE
	_ZN9firesight8Pipeline20apply_HoleRecognizerEP6json_tS2_RNS_5ModelE
	_ZN9firesight8Pipeline24apply_SimpleBlobDetectorEP6json_tS2_RNS_5ModelE
	_ZN9firesight8Pipeline7eigenXYERKSt6vectorIN2cv6Point_IiEESaIS4_EERNS2_3MatESA_SA_
	_ZN9firesight8Pipeline7processERN2cv3MatERSt3mapISsPKcSt4lessISsESaISt4pairIKSsS6_EEE
	_ZN9firesight8Pipeline7stageOKEPKcS2_P6json_tS4_
	_ZN9firesight8Pipeline8_eigenXYERKSt6vectorIN2cv6Point_IiEESaIS4_EERNS2_3MatESA_SA_
	_ZN9firesight8Pipeline8dispatchEPKcP6json_tS4_RNS_5ModelE
	_ZN9firesight8Pipeline9apply_MatEP6json_tS2_RNS_5ModelE
	_ZN9firesight8Pipeline9apply_dftEP6json_tS2_RNS_5ModelE
	_ZN9firesight8PipelineC1EP6json_t
	_ZN9firesight8PipelineC1EPKc
	_ZN9firesight8PipelineC2EP6json_t
	_ZN9firesight8PipelineC2EPKc
	_ZN9firesight8PipelineD1Ev
	_ZN9firesight8PipelineD2Ev
	_ZN9firesight8jo_parseEPKcRSt3mapISsS1_St4lessISsESaISt4pairIKSsS1_EEE
	_ZN9firesight8jo_shapeEP6json_tPKcRS3_RSt3mapISsS3_St4lessISsESaISt4pairIKSsS3_EEE
	_ZN9firesight9jo_ScalarEPK6json_tPKcRKN2cv7Scalar_IdEERSt3mapISsS4_St4lessISsESaISt4pairIKSsS4_EEE
	_ZN9firesight9jo_doubleEPK6json_tPKcdRSt3mapISsS4_St4lessISsESaISt4pairIKSsS4_EEE
	_ZN9firesight9jo_objectEPK6json_tPKcRSt3mapISsS4_St4lessISsESaISt4pairIKSsS4_EEE
	_ZN9firesight9jo_stringEPK6json_tPKcS4_RSt3mapISsS4_St4lessISsESaISt4pairIKSsS4_EEE
	_fini
	_init
	firelog
	firelog_destroy
	firelog_init
	firelog_lastMessage
	firelog_lastMessageClear
	firelog_level
	firelog_show_thread_id
	hashtable_clear
	hashtable_close
	hashtable_del
	hashtable_get
	hashtable_init
	hashtable_iter
	hashtable_iter_at
	hashtable_iter_key
	hashtable_iter_next
	hashtable_iter_serial
	hashtable_iter_set
	hashtable_iter_value
	hashtable_set
	json_array
	json_array_append_new
	json_array_clear
	json_array_extend
	json_array_get
	json_array_insert_new
	json_array_remove
	json_array_set_new
	json_array_size
	json_copy
	json_deep_copy
	json_delete
	json_dump_callback
	json_dump_file
	json_dumpf
	json_dumps
	json_equal
	json_false
	json_integer
	json_integer_set
	json_integer_value
	json_load_callback
	json_load_file
	json_loadb
	json_loadf
	json_loads
	json_null
	json_number_value
	json_object
	json_object_clear
	json_object_del
	json_object_get
	json_object_iter
	json_object_iter_at
	json_object_iter_key
	json_object_iter_next
	json_object_iter_set_new
	json_object_iter_value
	json_object_key_to_iter
	json_object_set_new
	json_object_set_new_nocheck
	json_object_size
	json_object_update
	json_object_update_existing
	json_object_update_missing
	json_real
	json_real_set
	json_real_value
	json_set_alloc_funcs
	json_string
	json_string_length
	json_string_nocheck
	json_string_set
	json_string_set_nocheck
	json_string_setn
	json_string_setn_nocheck
	json_string_value
	json_stringn
	json_stringn_nocheck
	json_true
	jsonp_dtostr
	jsonp_error_init
	jsonp_error_set
	jsonp_error_set_source
	jsonp_error_vset
	jsonp_free
	jsonp_malloc
	jsonp_strdup
	jsonp_stringn_nocheck_own
	jsonp_strndup
	jsonp_strtod
	strbuffer_append
	strbuffer_append_byte
	strbuffer_append_bytes
	strbuffer_clear
	strbuffer_close
	strbuffer_init
	strbuffer_pop
	strbuffer_steal_value
	strbuffer_value
	utf8_check_first
	utf8_check_full
	utf8_check_string
	utf8_encode
	utf8_iterate
